ARM GAS  C:\Users\VIKRAM~1\AppData\Local\Temp\ccFnBvIZ.s 			page 1


   1              		.cpu cortex-m4
   2              		.arch armv7e-m
   3              		.fpu fpv4-sp-d16
   4              		.eabi_attribute 27, 1
   5              		.eabi_attribute 28, 1
   6              		.eabi_attribute 20, 1
   7              		.eabi_attribute 21, 1
   8              		.eabi_attribute 23, 3
   9              		.eabi_attribute 24, 1
  10              		.eabi_attribute 25, 1
  11              		.eabi_attribute 26, 1
  12              		.eabi_attribute 30, 1
  13              		.eabi_attribute 34, 1
  14              		.eabi_attribute 18, 4
  15              		.file	"main.c"
  16              		.text
  17              		.section	.text.MX_GPIO_Init,"ax",%progbits
  18              		.align	1
  19              		.syntax unified
  20              		.thumb
  21              		.thumb_func
  23              	MX_GPIO_Init:
  24              		@ args = 0, pretend = 0, frame = 40
  25              		@ frame_needed = 0, uses_anonymous_args = 0
  26 0000 30B5     		push	{r4, r5, lr}
  27 0002 8BB0     		sub	sp, sp, #44
  28 0004 0024     		movs	r4, #0
  29 0006 0594     		str	r4, [sp, #20]
  30 0008 0694     		str	r4, [sp, #24]
  31 000a 0794     		str	r4, [sp, #28]
  32 000c 0894     		str	r4, [sp, #32]
  33 000e 0994     		str	r4, [sp, #36]
  34 0010 0194     		str	r4, [sp, #4]
  35 0012 2C4B     		ldr	r3, .L3
  36 0014 1A6B     		ldr	r2, [r3, #48]
  37 0016 42F00402 		orr	r2, r2, #4
  38 001a 1A63     		str	r2, [r3, #48]
  39 001c 1A6B     		ldr	r2, [r3, #48]
  40 001e 02F00402 		and	r2, r2, #4
  41 0022 0192     		str	r2, [sp, #4]
  42 0024 019A     		ldr	r2, [sp, #4]
  43 0026 0294     		str	r4, [sp, #8]
  44 0028 1A6B     		ldr	r2, [r3, #48]
  45 002a 42F08002 		orr	r2, r2, #128
  46 002e 1A63     		str	r2, [r3, #48]
  47 0030 1A6B     		ldr	r2, [r3, #48]
  48 0032 02F08002 		and	r2, r2, #128
  49 0036 0292     		str	r2, [sp, #8]
  50 0038 029A     		ldr	r2, [sp, #8]
  51 003a 0394     		str	r4, [sp, #12]
  52 003c 1A6B     		ldr	r2, [r3, #48]
  53 003e 42F00102 		orr	r2, r2, #1
  54 0042 1A63     		str	r2, [r3, #48]
  55 0044 1A6B     		ldr	r2, [r3, #48]
  56 0046 02F00102 		and	r2, r2, #1
  57 004a 0392     		str	r2, [sp, #12]
  58 004c 039A     		ldr	r2, [sp, #12]
ARM GAS  C:\Users\VIKRAM~1\AppData\Local\Temp\ccFnBvIZ.s 			page 2


  59 004e 0494     		str	r4, [sp, #16]
  60 0050 1A6B     		ldr	r2, [r3, #48]
  61 0052 42F00202 		orr	r2, r2, #2
  62 0056 1A63     		str	r2, [r3, #48]
  63 0058 1B6B     		ldr	r3, [r3, #48]
  64 005a 03F00203 		and	r3, r3, #2
  65 005e 0493     		str	r3, [sp, #16]
  66 0060 049B     		ldr	r3, [sp, #16]
  67 0062 194D     		ldr	r5, .L3+4
  68 0064 2246     		mov	r2, r4
  69 0066 2021     		movs	r1, #32
  70 0068 2846     		mov	r0, r5
  71 006a FFF7FEFF 		bl	HAL_GPIO_WritePin
  72 006e 4FF40053 		mov	r3, #8192
  73 0072 0593     		str	r3, [sp, #20]
  74 0074 4FF40413 		mov	r3, #2162688
  75 0078 0693     		str	r3, [sp, #24]
  76 007a 0794     		str	r4, [sp, #28]
  77 007c 05A9     		add	r1, sp, #20
  78 007e 1348     		ldr	r0, .L3+8
  79 0080 FFF7FEFF 		bl	HAL_GPIO_Init
  80 0084 2023     		movs	r3, #32
  81 0086 0593     		str	r3, [sp, #20]
  82 0088 0123     		movs	r3, #1
  83 008a 0693     		str	r3, [sp, #24]
  84 008c 0794     		str	r4, [sp, #28]
  85 008e 0894     		str	r4, [sp, #32]
  86 0090 05A9     		add	r1, sp, #20
  87 0092 2846     		mov	r0, r5
  88 0094 FFF7FEFF 		bl	HAL_GPIO_Init
  89 0098 4FF48073 		mov	r3, #256
  90 009c 0593     		str	r3, [sp, #20]
  91 009e 4FF48813 		mov	r3, #1114112
  92 00a2 0693     		str	r3, [sp, #24]
  93 00a4 0794     		str	r4, [sp, #28]
  94 00a6 05A9     		add	r1, sp, #20
  95 00a8 2846     		mov	r0, r5
  96 00aa FFF7FEFF 		bl	HAL_GPIO_Init
  97 00ae 2246     		mov	r2, r4
  98 00b0 2146     		mov	r1, r4
  99 00b2 1720     		movs	r0, #23
 100 00b4 FFF7FEFF 		bl	HAL_NVIC_SetPriority
 101 00b8 1720     		movs	r0, #23
 102 00ba FFF7FEFF 		bl	HAL_NVIC_EnableIRQ
 103 00be 0BB0     		add	sp, sp, #44
 104              		@ sp needed
 105 00c0 30BD     		pop	{r4, r5, pc}
 106              	.L4:
 107 00c2 00BF     		.align	2
 108              	.L3:
 109 00c4 00380240 		.word	1073887232
 110 00c8 00000240 		.word	1073872896
 111 00cc 00080240 		.word	1073874944
 113              		.global	__aeabi_i2d
 114              		.global	__aeabi_ddiv
 115              		.global	__aeabi_d2f
 116              		.global	__aeabi_l2d
ARM GAS  C:\Users\VIKRAM~1\AppData\Local\Temp\ccFnBvIZ.s 			page 3


 117              		.global	__aeabi_dcmpgt
 118              		.section	.text.HAL_GPIO_EXTI_Callback,"ax",%progbits
 119              		.align	1
 120              		.global	HAL_GPIO_EXTI_Callback
 121              		.syntax unified
 122              		.thumb
 123              		.thumb_func
 125              	HAL_GPIO_EXTI_Callback:
 126              		@ args = 0, pretend = 0, frame = 0
 127              		@ frame_needed = 0, uses_anonymous_args = 0
 128 0000 B0F5807F 		cmp	r0, #256
 129 0004 00D0     		beq	.L19
 130 0006 7047     		bx	lr
 131              	.L19:
 132 0008 F8B5     		push	{r3, r4, r5, r6, r7, lr}
 133 000a 3B4B     		ldr	r3, .L20+8
 134 000c 1B68     		ldr	r3, [r3]
 135 000e 5C6A     		ldr	r4, [r3, #36]
 136 0010 3A4B     		ldr	r3, .L20+12
 137 0012 1C60     		str	r4, [r3]
 138 0014 3A4B     		ldr	r3, .L20+16
 139 0016 1D68     		ldr	r5, [r3]
 140 0018 012D     		cmp	r5, #1
 141 001a 5BDD     		ble	.L7
 142 001c 394B     		ldr	r3, .L20+20
 143 001e 1868     		ldr	r0, [r3]
 144 0020 8442     		cmp	r4, r0
 145 0022 30DB     		blt	.L8
 146 0024 201A     		subs	r0, r4, r0
 147 0026 FFF7FEFF 		bl	__aeabi_i2d
 148 002a 0646     		mov	r6, r0
 149 002c 0F46     		mov	r7, r1
 150 002e 364B     		ldr	r3, .L20+24
 151 0030 C3E90067 		strd	r6, [r3]
 152 0034 0022     		movs	r2, #0
 153 0036 354B     		ldr	r3, .L20+28
 154 0038 FFF7FEFF 		bl	__aeabi_ddiv
 155 003c 0246     		mov	r2, r0
 156 003e 0B46     		mov	r3, r1
 157 0040 3349     		ldr	r1, .L20+32
 158 0042 C1E90023 		strd	r2, [r1]
 159 0046 2AA1     		adr	r1, .L20
 160 0048 D1E90001 		ldrd	r0, [r1]
 161 004c FFF7FEFF 		bl	__aeabi_ddiv
 162 0050 FFF7FEFF 		bl	__aeabi_d2f
 163 0054 2F4B     		ldr	r3, .L20+36
 164 0056 1860     		str	r0, [r3]	@ float
 165              	.L9:
 166 0058 0022     		movs	r2, #0
 167 005a 0023     		movs	r3, #0
 168 005c 2A49     		ldr	r1, .L20+24
 169 005e D1E90001 		ldrd	r0, [r1]
 170 0062 FFF7FEFF 		bl	__aeabi_dcmpgt
 171 0066 88B3     		cbz	r0, .L14
 172 0068 2A4B     		ldr	r3, .L20+36
 173 006a D3ED007A 		vldr.32	s15, [r3]
 174 006e 9FED2A7A 		vldr.32	s14, .L20+40
ARM GAS  C:\Users\VIKRAM~1\AppData\Local\Temp\ccFnBvIZ.s 			page 4


 175 0072 67EE877A 		vmul.f32	s15, s15, s14
 176 0076 294B     		ldr	r3, .L20+44
 177 0078 C3ED007A 		vstr.32	s15, [r3]
 178 007c 77EEA77A 		vadd.f32	s15, s15, s15
 179 0080 C3ED007A 		vstr.32	s15, [r3]
 180 0084 29E0     		b	.L12
 181              	.L8:
 182 0086 D0F1FF33 		rsbs	r3, r0, #-1
 183 008a E117     		asrs	r1, r4, #31
 184 008c E318     		adds	r3, r4, r3
 185 008e 41EBD071 		adc	r1, r1, r0, lsr #31
 186 0092 581C     		adds	r0, r3, #1
 187 0094 41F10001 		adc	r1, r1, #0
 188 0098 FFF7FEFF 		bl	__aeabi_l2d
 189 009c 0646     		mov	r6, r0
 190 009e 0F46     		mov	r7, r1
 191 00a0 194B     		ldr	r3, .L20+24
 192 00a2 C3E90067 		strd	r6, [r3]
 193 00a6 0022     		movs	r2, #0
 194 00a8 184B     		ldr	r3, .L20+28
 195 00aa FFF7FEFF 		bl	__aeabi_ddiv
 196 00ae 0246     		mov	r2, r0
 197 00b0 0B46     		mov	r3, r1
 198 00b2 1749     		ldr	r1, .L20+32
 199 00b4 C1E90023 		strd	r2, [r1]
 200 00b8 0DA1     		adr	r1, .L20
 201 00ba D1E90001 		ldrd	r0, [r1]
 202 00be FFF7FEFF 		bl	__aeabi_ddiv
 203 00c2 FFF7FEFF 		bl	__aeabi_d2f
 204 00c6 134B     		ldr	r3, .L20+36
 205 00c8 1860     		str	r0, [r3]	@ float
 206 00ca C5E7     		b	.L9
 207              	.L14:
 208 00cc 134B     		ldr	r3, .L20+44
 209 00ce 144A     		ldr	r2, .L20+48
 210 00d0 1A60     		str	r2, [r3]	@ float
 211 00d2 02E0     		b	.L12
 212              	.L7:
 213 00d4 114B     		ldr	r3, .L20+44
 214 00d6 124A     		ldr	r2, .L20+48
 215 00d8 1A60     		str	r2, [r3]	@ float
 216              	.L12:
 217 00da 124B     		ldr	r3, .L20+52
 218 00dc 1968     		ldr	r1, [r3]
 219 00de 094A     		ldr	r2, .L20+20
 220 00e0 1160     		str	r1, [r2]
 221 00e2 1C60     		str	r4, [r3]
 222 00e4 0135     		adds	r5, r5, #1
 223 00e6 064B     		ldr	r3, .L20+16
 224 00e8 1D60     		str	r5, [r3]
 225 00ea F8BD     		pop	{r3, r4, r5, r6, r7, pc}
 226              	.L21:
 227 00ec AFF30080 		.align	3
 228              	.L20:
 229 00f0 00000000 		.word	0
 230 00f4 80842E41 		.word	1093567616
 231 00f8 00000000 		.word	htim2
ARM GAS  C:\Users\VIKRAM~1\AppData\Local\Temp\ccFnBvIZ.s 			page 5


 232 00fc 00000000 		.word	curr_tim2Counter
 233 0100 00000000 		.word	COUNTER
 234 0104 00000000 		.word	prev_prev_tim2Counter
 235 0108 00000000 		.word	time_diff
 236 010c 00002440 		.word	1076101120
 237 0110 00000000 		.word	time_diff_us
 238 0114 00000000 		.word	frequency
 239 0118 00007042 		.word	1114636288
 240 011c 00000000 		.word	RPM
 241 0120 000080BF 		.word	-1082130432
 242 0124 00000000 		.word	prev_tim2Counter
 244              		.section	.text.Error_Handler,"ax",%progbits
 245              		.align	1
 246              		.global	Error_Handler
 247              		.syntax unified
 248              		.thumb
 249              		.thumb_func
 251              	Error_Handler:
 252              		@ Volatile: function does not return.
 253              		@ args = 0, pretend = 0, frame = 0
 254              		@ frame_needed = 0, uses_anonymous_args = 0
 255              		@ link register save eliminated.
 256              		.syntax unified
 257              	@ 962 "Drivers/CMSIS/Include/cmsis_gcc.h" 1
 258 0000 72B6     		cpsid i
 259              	@ 0 "" 2
 260              		.thumb
 261              		.syntax unified
 262              	.L23:
 263 0002 FEE7     		b	.L23
 265              		.section	.text.MX_USART2_UART_Init,"ax",%progbits
 266              		.align	1
 267              		.syntax unified
 268              		.thumb
 269              		.thumb_func
 271              	MX_USART2_UART_Init:
 272              		@ args = 0, pretend = 0, frame = 0
 273              		@ frame_needed = 0, uses_anonymous_args = 0
 274 0000 08B5     		push	{r3, lr}
 275 0002 0A48     		ldr	r0, .L28
 276 0004 0A4B     		ldr	r3, .L28+4
 277 0006 0360     		str	r3, [r0]
 278 0008 4FF4E133 		mov	r3, #115200
 279 000c 4360     		str	r3, [r0, #4]
 280 000e 0023     		movs	r3, #0
 281 0010 8360     		str	r3, [r0, #8]
 282 0012 C360     		str	r3, [r0, #12]
 283 0014 0361     		str	r3, [r0, #16]
 284 0016 0C22     		movs	r2, #12
 285 0018 4261     		str	r2, [r0, #20]
 286 001a 8361     		str	r3, [r0, #24]
 287 001c C361     		str	r3, [r0, #28]
 288 001e FFF7FEFF 		bl	HAL_UART_Init
 289 0022 00B9     		cbnz	r0, .L27
 290 0024 08BD     		pop	{r3, pc}
 291              	.L27:
 292 0026 FFF7FEFF 		bl	Error_Handler
ARM GAS  C:\Users\VIKRAM~1\AppData\Local\Temp\ccFnBvIZ.s 			page 6


 293              	.L29:
 294 002a 00BF     		.align	2
 295              	.L28:
 296 002c 00000000 		.word	huart2
 297 0030 00440040 		.word	1073759232
 299              		.section	.text.MX_TIM2_Init,"ax",%progbits
 300              		.align	1
 301              		.syntax unified
 302              		.thumb
 303              		.thumb_func
 305              	MX_TIM2_Init:
 306              		@ args = 0, pretend = 0, frame = 24
 307              		@ frame_needed = 0, uses_anonymous_args = 0
 308 0000 00B5     		push	{lr}
 309 0002 87B0     		sub	sp, sp, #28
 310 0004 0023     		movs	r3, #0
 311 0006 0293     		str	r3, [sp, #8]
 312 0008 0393     		str	r3, [sp, #12]
 313 000a 0493     		str	r3, [sp, #16]
 314 000c 0593     		str	r3, [sp, #20]
 315 000e 0093     		str	r3, [sp]
 316 0010 0193     		str	r3, [sp, #4]
 317 0012 1448     		ldr	r0, .L38
 318 0014 4FF08042 		mov	r2, #1073741824
 319 0018 0260     		str	r2, [r0]
 320 001a 0F22     		movs	r2, #15
 321 001c 4260     		str	r2, [r0, #4]
 322 001e 8360     		str	r3, [r0, #8]
 323 0020 4FF0FF32 		mov	r2, #-1
 324 0024 C260     		str	r2, [r0, #12]
 325 0026 0361     		str	r3, [r0, #16]
 326 0028 8361     		str	r3, [r0, #24]
 327 002a FFF7FEFF 		bl	HAL_TIM_Base_Init
 328 002e 90B9     		cbnz	r0, .L35
 329 0030 4FF48053 		mov	r3, #4096
 330 0034 0293     		str	r3, [sp, #8]
 331 0036 02A9     		add	r1, sp, #8
 332 0038 0A48     		ldr	r0, .L38
 333 003a FFF7FEFF 		bl	HAL_TIM_ConfigClockSource
 334 003e 60B9     		cbnz	r0, .L36
 335 0040 0023     		movs	r3, #0
 336 0042 0093     		str	r3, [sp]
 337 0044 0193     		str	r3, [sp, #4]
 338 0046 6946     		mov	r1, sp
 339 0048 0648     		ldr	r0, .L38
 340 004a FFF7FEFF 		bl	HAL_TIMEx_MasterConfigSynchronization
 341 004e 30B9     		cbnz	r0, .L37
 342 0050 07B0     		add	sp, sp, #28
 343              		@ sp needed
 344 0052 5DF804FB 		ldr	pc, [sp], #4
 345              	.L35:
 346 0056 FFF7FEFF 		bl	Error_Handler
 347              	.L36:
 348 005a FFF7FEFF 		bl	Error_Handler
 349              	.L37:
 350 005e FFF7FEFF 		bl	Error_Handler
 351              	.L39:
ARM GAS  C:\Users\VIKRAM~1\AppData\Local\Temp\ccFnBvIZ.s 			page 7


 352 0062 00BF     		.align	2
 353              	.L38:
 354 0064 00000000 		.word	htim2
 356              		.section	.text.MX_USART1_UART_Init,"ax",%progbits
 357              		.align	1
 358              		.syntax unified
 359              		.thumb
 360              		.thumb_func
 362              	MX_USART1_UART_Init:
 363              		@ args = 0, pretend = 0, frame = 0
 364              		@ frame_needed = 0, uses_anonymous_args = 0
 365 0000 08B5     		push	{r3, lr}
 366 0002 0A48     		ldr	r0, .L44
 367 0004 0A4B     		ldr	r3, .L44+4
 368 0006 0360     		str	r3, [r0]
 369 0008 4FF4E133 		mov	r3, #115200
 370 000c 4360     		str	r3, [r0, #4]
 371 000e 0023     		movs	r3, #0
 372 0010 8360     		str	r3, [r0, #8]
 373 0012 C360     		str	r3, [r0, #12]
 374 0014 0361     		str	r3, [r0, #16]
 375 0016 0C22     		movs	r2, #12
 376 0018 4261     		str	r2, [r0, #20]
 377 001a 8361     		str	r3, [r0, #24]
 378 001c C361     		str	r3, [r0, #28]
 379 001e FFF7FEFF 		bl	HAL_UART_Init
 380 0022 00B9     		cbnz	r0, .L43
 381 0024 08BD     		pop	{r3, pc}
 382              	.L43:
 383 0026 FFF7FEFF 		bl	Error_Handler
 384              	.L45:
 385 002a 00BF     		.align	2
 386              	.L44:
 387 002c 00000000 		.word	huart1
 388 0030 00100140 		.word	1073811456
 390              		.section	.text.SystemClock_Config,"ax",%progbits
 391              		.align	1
 392              		.global	SystemClock_Config
 393              		.syntax unified
 394              		.thumb
 395              		.thumb_func
 397              	SystemClock_Config:
 398              		@ args = 0, pretend = 0, frame = 80
 399              		@ frame_needed = 0, uses_anonymous_args = 0
 400 0000 00B5     		push	{lr}
 401 0002 95B0     		sub	sp, sp, #84
 402 0004 3022     		movs	r2, #48
 403 0006 0021     		movs	r1, #0
 404 0008 08A8     		add	r0, sp, #32
 405 000a FFF7FEFF 		bl	memset
 406 000e 0023     		movs	r3, #0
 407 0010 0393     		str	r3, [sp, #12]
 408 0012 0493     		str	r3, [sp, #16]
 409 0014 0593     		str	r3, [sp, #20]
 410 0016 0693     		str	r3, [sp, #24]
 411 0018 0793     		str	r3, [sp, #28]
 412 001a 0193     		str	r3, [sp, #4]
ARM GAS  C:\Users\VIKRAM~1\AppData\Local\Temp\ccFnBvIZ.s 			page 8


 413 001c 1F4A     		ldr	r2, .L52
 414 001e 116C     		ldr	r1, [r2, #64]
 415 0020 41F08051 		orr	r1, r1, #268435456
 416 0024 1164     		str	r1, [r2, #64]
 417 0026 126C     		ldr	r2, [r2, #64]
 418 0028 02F08052 		and	r2, r2, #268435456
 419 002c 0192     		str	r2, [sp, #4]
 420 002e 019A     		ldr	r2, [sp, #4]
 421 0030 0293     		str	r3, [sp, #8]
 422 0032 1B49     		ldr	r1, .L52+4
 423 0034 0A68     		ldr	r2, [r1]
 424 0036 22F44042 		bic	r2, r2, #49152
 425 003a 42F40042 		orr	r2, r2, #32768
 426 003e 0A60     		str	r2, [r1]
 427 0040 0A68     		ldr	r2, [r1]
 428 0042 02F44042 		and	r2, r2, #49152
 429 0046 0292     		str	r2, [sp, #8]
 430 0048 029A     		ldr	r2, [sp, #8]
 431 004a 0221     		movs	r1, #2
 432 004c 0891     		str	r1, [sp, #32]
 433 004e 0122     		movs	r2, #1
 434 0050 0B92     		str	r2, [sp, #44]
 435 0052 1022     		movs	r2, #16
 436 0054 0C92     		str	r2, [sp, #48]
 437 0056 0E91     		str	r1, [sp, #56]
 438 0058 0F93     		str	r3, [sp, #60]
 439 005a 1092     		str	r2, [sp, #64]
 440 005c 4FF4A873 		mov	r3, #336
 441 0060 1193     		str	r3, [sp, #68]
 442 0062 0423     		movs	r3, #4
 443 0064 1293     		str	r3, [sp, #72]
 444 0066 0723     		movs	r3, #7
 445 0068 1393     		str	r3, [sp, #76]
 446 006a 08A8     		add	r0, sp, #32
 447 006c FFF7FEFF 		bl	HAL_RCC_OscConfig
 448 0070 80B9     		cbnz	r0, .L50
 449 0072 0F23     		movs	r3, #15
 450 0074 0393     		str	r3, [sp, #12]
 451 0076 0221     		movs	r1, #2
 452 0078 0491     		str	r1, [sp, #16]
 453 007a 0023     		movs	r3, #0
 454 007c 0593     		str	r3, [sp, #20]
 455 007e 4FF48052 		mov	r2, #4096
 456 0082 0692     		str	r2, [sp, #24]
 457 0084 0793     		str	r3, [sp, #28]
 458 0086 03A8     		add	r0, sp, #12
 459 0088 FFF7FEFF 		bl	HAL_RCC_ClockConfig
 460 008c 20B9     		cbnz	r0, .L51
 461 008e 15B0     		add	sp, sp, #84
 462              		@ sp needed
 463 0090 5DF804FB 		ldr	pc, [sp], #4
 464              	.L50:
 465 0094 FFF7FEFF 		bl	Error_Handler
 466              	.L51:
 467 0098 FFF7FEFF 		bl	Error_Handler
 468              	.L53:
 469              		.align	2
ARM GAS  C:\Users\VIKRAM~1\AppData\Local\Temp\ccFnBvIZ.s 			page 9


 470              	.L52:
 471 009c 00380240 		.word	1073887232
 472 00a0 00700040 		.word	1073770496
 474              		.section	.text.main,"ax",%progbits
 475              		.align	1
 476              		.global	main
 477              		.syntax unified
 478              		.thumb
 479              		.thumb_func
 481              	main:
 482              		@ Volatile: function does not return.
 483              		@ args = 0, pretend = 0, frame = 0
 484              		@ frame_needed = 0, uses_anonymous_args = 0
 485 0000 08B5     		push	{r3, lr}
 486 0002 FFF7FEFF 		bl	HAL_Init
 487 0006 FFF7FEFF 		bl	SystemClock_Config
 488 000a FFF7FEFF 		bl	MX_GPIO_Init
 489 000e FFF7FEFF 		bl	MX_USART2_UART_Init
 490 0012 FFF7FEFF 		bl	MX_TIM2_Init
 491 0016 FFF7FEFF 		bl	MX_USART1_UART_Init
 492 001a 0248     		ldr	r0, .L57
 493 001c FFF7FEFF 		bl	HAL_TIM_Base_Start
 494              	.L55:
 495 0020 FEE7     		b	.L55
 496              	.L58:
 497 0022 00BF     		.align	2
 498              	.L57:
 499 0024 00000000 		.word	htim2
 501              		.global	huart2
 502              		.section	.bss.huart2,"aw",%nobits
 503              		.align	2
 506              	huart2:
 507 0000 00000000 		.space	72
 507      00000000 
 507      00000000 
 507      00000000 
 507      00000000 
 508              		.global	huart1
 509              		.section	.bss.huart1,"aw",%nobits
 510              		.align	2
 513              	huart1:
 514 0000 00000000 		.space	72
 514      00000000 
 514      00000000 
 514      00000000 
 514      00000000 
 515              		.global	htim2
 516              		.section	.bss.htim2,"aw",%nobits
 517              		.align	2
 520              	htim2:
 521 0000 00000000 		.space	72
 521      00000000 
 521      00000000 
 521      00000000 
 521      00000000 
 522              		.global	htim2_value
 523              		.section	.bss.htim2_value,"aw",%nobits
ARM GAS  C:\Users\VIKRAM~1\AppData\Local\Temp\ccFnBvIZ.s 			page 10


 524              		.align	2
 527              	htim2_value:
 528 0000 00000000 		.space	4
 529              		.global	time_diff_us
 530              		.section	.bss.time_diff_us,"aw",%nobits
 531              		.align	3
 534              	time_diff_us:
 535 0000 00000000 		.space	8
 535      00000000 
 536              		.global	time_diff
 537              		.section	.bss.time_diff,"aw",%nobits
 538              		.align	3
 541              	time_diff:
 542 0000 00000000 		.space	8
 542      00000000 
 543              		.global	frequency
 544              		.section	.bss.frequency,"aw",%nobits
 545              		.align	2
 548              	frequency:
 549 0000 00000000 		.space	4
 550              		.global	HzToRPM
 551              		.section	.rodata.HzToRPM,"a"
 552              		.align	2
 555              	HzToRPM:
 556 0000 3C000000 		.word	60
 557              		.global	MusTOhz
 558              		.section	.rodata.MusTOhz,"a"
 559              		.align	2
 562              	MusTOhz:
 563 0000 00247449 		.word	1232348160
 564              		.global	RPM
 565              		.section	.bss.RPM,"aw",%nobits
 566              		.align	2
 569              	RPM:
 570 0000 00000000 		.space	4
 571              		.global	prev_prev_tim2Counter
 572              		.section	.bss.prev_prev_tim2Counter,"aw",%nobits
 573              		.align	2
 576              	prev_prev_tim2Counter:
 577 0000 00000000 		.space	4
 578              		.global	prev_tim2Counter
 579              		.section	.bss.prev_tim2Counter,"aw",%nobits
 580              		.align	2
 583              	prev_tim2Counter:
 584 0000 00000000 		.space	4
 585              		.global	curr_tim2Counter
 586              		.section	.bss.curr_tim2Counter,"aw",%nobits
 587              		.align	2
 590              	curr_tim2Counter:
 591 0000 00000000 		.space	4
 592              		.global	cycleEndTime
 593              		.section	.bss.cycleEndTime,"aw",%nobits
 594              		.align	2
 597              	cycleEndTime:
 598 0000 00000000 		.space	4
 599              		.global	cycleStartTime
 600              		.section	.bss.cycleStartTime,"aw",%nobits
ARM GAS  C:\Users\VIKRAM~1\AppData\Local\Temp\ccFnBvIZ.s 			page 11


 601              		.align	2
 604              	cycleStartTime:
 605 0000 00000000 		.space	4
 606              		.global	COUNTER
 607              		.section	.bss.COUNTER,"aw",%nobits
 608              		.align	2
 611              	COUNTER:
 612 0000 00000000 		.space	4
 613              		.ident	"GCC: (xPack GNU Arm Embedded GCC x86_64) 13.3.1 20240614"
ARM GAS  C:\Users\VIKRAM~1\AppData\Local\Temp\ccFnBvIZ.s 			page 12

